target datalayout = "e-m:e-p270:32:32-p271:32:32-p272:64:64-i64:64-i128:128-f80:128-n8:16:32:64-S128"
target triple = "x86_64-pc-linux-gnu"

@.str.9 = private unnamed_addr constant [32 x i8] c"/sys/class/net/%s/statistics/%s\00", align 1

; Function Attrs: mustprogress nounwind uwtable
define hidden noundef i64 @_ZNK27NetworkPerformanceInterface18NetworkPerformance12read_counterEPKcS2_(ptr noundef nonnull align 1 dereferenceable(1) %0, ptr noundef %1, ptr noundef %2) #1 align 2 {
  %4 = alloca i64, align 8
  %5 = alloca ptr, align 8
  %6 = alloca ptr, align 8
  %7 = alloca ptr, align 8
  %8 = alloca [128 x i8], align 16
  %9 = alloca i32, align 4
  %10 = alloca i64, align 8
  %11 = alloca i64, align 8
  store ptr %0, ptr %5, align 8
  store ptr %1, ptr %6, align 8
  store ptr %2, ptr %7, align 8
  %12 = getelementptr inbounds [128 x i8], ptr %8, i64 0, i64 0
  %13 = load ptr, ptr %6, align 8
  %14 = load ptr, ptr %7, align 8
  %15 = call i32 (ptr, i64, ptr, ...) @snprintf(ptr noundef %12, i64 noundef 128, ptr noundef @.str.9, ptr noundef %13, ptr noundef %14) #8
  %16 = getelementptr inbounds [128 x i8], ptr %8, i64 0, i64 0
  %17 = call noundef i32 @_ZN2os4openEPKcii(ptr noundef %16, i32 noundef 0, i32 noundef 0)
  store i32 %17, ptr %9, align 4
  %18 = load i32, ptr %9, align 4
  %19 = icmp eq i32 %18, -1
  br i1 %19, label %20, label %21

20:                                               ; preds = %3
  store i64 -1, ptr %4, align 8
  br label %42

21:                                               ; preds = %3
  %22 = load i32, ptr %9, align 4
  %23 = getelementptr inbounds [128 x i8], ptr %8, i64 0, i64 0
  %24 = call i64 @read(i32 noundef %22, ptr noundef %23, i64 noundef 128)
  store i64 %24, ptr %10, align 8
  %25 = load i32, ptr %9, align 4
  %26 = call i32 @close(i32 noundef %25)
  %27 = load i64, ptr %10, align 8
  %28 = icmp eq i64 %27, -1
  br i1 %28, label %35, label %29

29:                                               ; preds = %21
  %30 = load i64, ptr %10, align 8
  %31 = icmp sge i64 %30, 128
  br i1 %31, label %35, label %32

32:                                               ; preds = %29
  %33 = load i64, ptr %10, align 8
  %34 = icmp slt i64 %33, 1
  br i1 %34, label %35, label %36

35:                                               ; preds = %32, %29, %21
  store i64 -1, ptr %4, align 8
  br label %42

36:                                               ; preds = %32
  %37 = load i64, ptr %10, align 8
  %38 = getelementptr inbounds [128 x i8], ptr %8, i64 0, i64 %37
  store i8 0, ptr %38, align 1
  %39 = getelementptr inbounds [128 x i8], ptr %8, i64 0, i64 0
  %40 = call i64 @strtoll(ptr noundef %39, ptr noundef null, i32 noundef 10) #8
  store i64 %40, ptr %11, align 8
  %41 = load i64, ptr %11, align 8
  store i64 %41, ptr %4, align 8
  br label %42

42:                                               ; preds = %36, %35, %20
  %43 = load i64, ptr %4, align 8
  ret i64 %43
}