; Function Attrs: mustprogress nounwind uwtable
define hidden noundef i64 @_ZNK27NetworkPerformanceInterface18NetworkPerformance12read_counterEPKcS2_(ptr nocapture noundef nonnull readnone align 1 dereferenceable(1) %0, ptr noundef %1, ptr noundef %2) local_unnamed_addr #0 align 2 {
  %4 = alloca [128 x i8], align 16
  %5 = call i32 (ptr, i64, ptr, ...) @snprintf(ptr noundef nonnull dereferenceable(1) %4, i64 noundef 128, ptr noundef nonnull @.str.9, ptr noundef %1, ptr noundef %2) #18
  %6 = call noundef i32 @_ZN2os4openEPKcii(ptr noundef nonnull %4, i32 noundef 0, i32 noundef 0) #18
  %7 = icmp eq i32 %6, -1
  br i1 %7, label %15, label %8

8:                                                ; preds = %3
  %9 = call i64 @read(i32 noundef %6, ptr noundef nonnull %4, i64 noundef 128) #18
  %10 = call i32 @close(i32 noundef %6) #18
  %11 = add i64 %9, -128
  %or.cond3 = icmp ult i64 %11, -127
  br i1 %or.cond3, label %15, label %12

12:                                               ; preds = %8
  %13 = getelementptr inbounds [128 x i8], ptr %4, i64 0, i64 %9
  store i8 0, ptr %13, align 1
  %14 = call i64 @strtoll(ptr nocapture noundef nonnull %4, ptr noundef null, i32 noundef 10) #18
  br label %15

15:                                               ; preds = %8, %3, %12
  %.0 = phi i64 [ %14, %12 ], [ -1, %3 ], [ -1, %8 ]
  ret i64 %.0
}